; Function Attrs: nofree norecurse nosync nounwind memory(argmem: readwrite) uwtable
define noundef i32 @cli_hexnibbles(ptr nocapture noundef %0, i32 noundef %1) local_unnamed_addr #21 {
  %3 = icmp sgt i32 %1, 0
  br i1 %3, label %.lr.ph.preheader, label %._crit_edge

.lr.ph.preheader:                                 ; preds = %2
  %wide.trip.count = zext nneg i32 %1 to i64
  br label %.lr.ph

.lr.ph:                                           ; preds = %.lr.ph.preheader, %10
  %indvars.iv = phi i64 [ 0, %.lr.ph.preheader ], [ %indvars.iv.next, %10 ]
  %4 = getelementptr inbounds i8, ptr %0, i64 %indvars.iv
  %5 = load i8, ptr %4, align 1
  %6 = zext i8 %5 to i64
  %7 = getelementptr inbounds [256 x i32], ptr @hex_chars, i64 0, i64 %6
  %8 = load i32, ptr %7, align 4
  %9 = icmp slt i32 %8, 0
  br i1 %9, label %._crit_edge, label %10

10:                                               ; preds = %.lr.ph
  %11 = trunc i32 %8 to i8
  store i8 %11, ptr %4, align 1
  %indvars.iv.next = add nuw nsw i64 %indvars.iv, 1
  %exitcond.not = icmp eq i64 %indvars.iv.next, %wide.trip.count
  br i1 %exitcond.not, label %._crit_edge, label %.lr.ph

._crit_edge:                                      ; preds = %.lr.ph, %10, %2
  %.0 = phi i32 [ 0, %2 ], [ 0, %10 ], [ 1, %.lr.ph ]
  ret i32 %.0
}